; ModuleID = '29/1101.c'
source_filename = "29/1101.c"
target datalayout = "e-m:e-p270:32:32-p271:32:32-p272:64:64-i64:64-f80:128-n8:16:32:64-S128"
target triple = "x86_64-pc-linux-gnu"

@.str = private unnamed_addr constant [4 x i8] c"%d \00", align 1
@.str.1 = private unnamed_addr constant [4 x i8] c" %d\00", align 1
@.str.2 = private unnamed_addr constant [7 x i8] c"%.3lf\0A\00", align 1

; Function Attrs: noinline nounwind uwtable
define dso_local i32 @main() #0 {
  %1 = alloca i32, align 4
  %2 = alloca i32, align 4
  %3 = alloca i32, align 4
  %4 = alloca i32, align 4
  %5 = alloca i32, align 4
  %6 = alloca double, align 8
  %7 = alloca double, align 8
  %8 = alloca double, align 8
  %9 = alloca double, align 8
  %10 = alloca double*, align 8
  store i32 0, i32* %1, align 4
  store double 2.000000e+00, double* %6, align 8
  store double 1.000000e+00, double* %7, align 8
  store double 0.000000e+00, double* %9, align 8
  %11 = call i32 (i8*, ...) @__isoc99_scanf(i8* getelementptr inbounds ([4 x i8], [4 x i8]* @.str, i64 0, i64 0), i32* %4)
  %12 = load i32, i32* %4, align 4
  %13 = sext i32 %12 to i64
  %14 = mul i64 8, %13
  %15 = call noalias i8* @malloc(i64 %14) #3
  %16 = bitcast i8* %15 to double*
  store double* %16, double** %10, align 8
  store i32 0, i32* %3, align 4
  br label %17

17:                                               ; preds = %50, %0
  %18 = call i32 (i8*, ...) @__isoc99_scanf(i8* getelementptr inbounds ([4 x i8], [4 x i8]* @.str.1, i64 0, i64 0), i32* %5)
  store i32 1, i32* %2, align 4
  br label %19

19:                                               ; preds = %35, %17
  %20 = load double, double* %6, align 8
  %21 = load double, double* %7, align 8
  %22 = fdiv double %20, %21
  %23 = load double, double* %9, align 8
  %24 = fadd double %23, %22
  store double %24, double* %9, align 8
  %25 = load double, double* %6, align 8
  %26 = load double, double* %7, align 8
  %27 = fadd double %25, %26
  store double %27, double* %8, align 8
  %28 = load double, double* %6, align 8
  store double %28, double* %7, align 8
  %29 = load double, double* %8, align 8
  store double %29, double* %6, align 8
  %30 = load i32, i32* %2, align 4
  %31 = load i32, i32* %5, align 4
  %32 = icmp eq i32 %30, %31
  br i1 %32, label %33, label %34

33:                                               ; preds = %19
  br label %38

34:                                               ; preds = %19
  br label %35

35:                                               ; preds = %34
  %36 = load i32, i32* %2, align 4
  %37 = add nsw i32 %36, 1
  store i32 %37, i32* %2, align 4
  br label %19

38:                                               ; preds = %33
  %39 = load double, double* %9, align 8
  %40 = load double*, double** %10, align 8
  %41 = load i32, i32* %3, align 4
  %42 = sext i32 %41 to i64
  %43 = getelementptr inbounds double, double* %40, i64 %42
  store double %39, double* %43, align 8
  store double 0.000000e+00, double* %9, align 8
  store double 2.000000e+00, double* %6, align 8
  store double 1.000000e+00, double* %7, align 8
  %44 = load i32, i32* %3, align 4
  %45 = load i32, i32* %4, align 4
  %46 = sub nsw i32 %45, 1
  %47 = icmp eq i32 %44, %46
  br i1 %47, label %48, label %49

48:                                               ; preds = %38
  br label %53

49:                                               ; preds = %38
  br label %50

50:                                               ; preds = %49
  %51 = load i32, i32* %3, align 4
  %52 = add nsw i32 %51, 1
  store i32 %52, i32* %3, align 4
  br label %17

53:                                               ; preds = %48
  store i32 0, i32* %3, align 4
  br label %54

54:                                               ; preds = %65, %53
  %55 = load i32, i32* %3, align 4
  %56 = load i32, i32* %4, align 4
  %57 = icmp slt i32 %55, %56
  br i1 %57, label %58, label %68

58:                                               ; preds = %54
  %59 = load double*, double** %10, align 8
  %60 = load i32, i32* %3, align 4
  %61 = sext i32 %60 to i64
  %62 = getelementptr inbounds double, double* %59, i64 %61
  %63 = load double, double* %62, align 8
  %64 = call i32 (i8*, ...) @printf(i8* getelementptr inbounds ([7 x i8], [7 x i8]* @.str.2, i64 0, i64 0), double %63)
  br label %65

65:                                               ; preds = %58
  %66 = load i32, i32* %3, align 4
  %67 = add nsw i32 %66, 1
  store i32 %67, i32* %3, align 4
  br label %54

68:                                               ; preds = %54
  %69 = load double*, double** %10, align 8
  %70 = bitcast double* %69 to i8*
  call void @free(i8* %70) #3
  ret i32 0
}

declare dso_local i32 @__isoc99_scanf(i8*, ...) #1

; Function Attrs: nounwind
declare dso_local noalias i8* @malloc(i64) #2

declare dso_local i32 @printf(i8*, ...) #1

; Function Attrs: nounwind
declare dso_local void @free(i8*) #2


!llvm.module.flags = !{!0}
!llvm.ident = !{!1}

!0 = !{i32 1, !"wchar_size", i32 4}
!1 = !{!"clang version 10.0.0-4ubuntu1 "}
