; ModuleID = 'source-C-CXX/28/1101.c'
source_filename = "source-C-CXX/28/1101.c"
target datalayout = "e-m:e-p270:32:32-p271:32:32-p272:64:64-i64:64-f80:128-n8:16:32:64-S128"
target triple = "x86_64-pc-linux-gnu"

@.str = private unnamed_addr constant [4 x i8] c"%d \00", align 1
@.str.1 = private unnamed_addr constant [4 x i8] c" %d\00", align 1
@.str.2 = private unnamed_addr constant [7 x i8] c"%.3lf\0A\00", align 1

; Function Attrs: nounwind sspstrong uwtable
define dso_local i32 @main() local_unnamed_addr #0 {
  %1 = alloca i32, align 4
  %2 = alloca i32, align 4
  %3 = bitcast i32* %1 to i8*
  call void @llvm.lifetime.start.p0i8(i64 4, i8* nonnull %3) #5
  %4 = bitcast i32* %2 to i8*
  call void @llvm.lifetime.start.p0i8(i64 4, i8* nonnull %4) #5
  %5 = call i32 (i8*, ...) @__isoc99_scanf(i8* getelementptr inbounds ([4 x i8], [4 x i8]* @.str, i64 0, i64 0), i32* nonnull %1)
  %6 = load i32, i32* %1, align 4, !tbaa !5
  %7 = sext i32 %6 to i64
  %8 = shl nsw i64 %7, 3
  %9 = call noalias align 16 i8* @malloc(i64 %8) #5
  %10 = bitcast i8* %9 to double*
  br label %11

11:                                               ; preds = %45, %0
  %12 = phi i64 [ %52, %45 ], [ 0, %0 ]
  %13 = call i32 (i8*, ...) @__isoc99_scanf(i8* getelementptr inbounds ([4 x i8], [4 x i8]* @.str.1, i64 0, i64 0), i32* nonnull %2)
  %14 = load i32, i32* %2, align 4, !tbaa !5
  %15 = icmp eq i32 %14, 1
  br i1 %15, label %45, label %16

16:                                               ; preds = %11
  %17 = add i32 %14, -1
  %18 = and i32 %17, 1
  %19 = icmp eq i32 %14, 2
  br i1 %19, label %35, label %20

20:                                               ; preds = %16
  %21 = and i32 %17, -2
  br label %22

22:                                               ; preds = %22, %20
  %23 = phi double [ 2.000000e+00, %20 ], [ %32, %22 ]
  %24 = phi double [ 1.000000e+00, %20 ], [ %27, %22 ]
  %25 = phi double [ 2.000000e+00, %20 ], [ %30, %22 ]
  %26 = phi i32 [ %21, %20 ], [ %33, %22 ]
  %27 = fadd double %25, %24
  %28 = fdiv double %27, %25
  %29 = fadd double %23, %28
  %30 = fadd double %27, %25
  %31 = fdiv double %30, %27
  %32 = fadd double %29, %31
  %33 = add i32 %26, -2
  %34 = icmp eq i32 %33, 0
  br i1 %34, label %35, label %22

35:                                               ; preds = %22, %16
  %36 = phi double [ undef, %16 ], [ %32, %22 ]
  %37 = phi double [ 2.000000e+00, %16 ], [ %32, %22 ]
  %38 = phi double [ 1.000000e+00, %16 ], [ %27, %22 ]
  %39 = phi double [ 2.000000e+00, %16 ], [ %30, %22 ]
  %40 = icmp eq i32 %18, 0
  br i1 %40, label %45, label %41

41:                                               ; preds = %35
  %42 = fadd double %39, %38
  %43 = fdiv double %42, %39
  %44 = fadd double %37, %43
  br label %45

45:                                               ; preds = %41, %35, %11
  %46 = phi double [ 2.000000e+00, %11 ], [ %36, %35 ], [ %44, %41 ]
  %47 = getelementptr inbounds double, double* %10, i64 %12
  store double %46, double* %47, align 8, !tbaa !9
  %48 = load i32, i32* %1, align 4, !tbaa !5
  %49 = add nsw i32 %48, -1
  %50 = zext i32 %49 to i64
  %51 = icmp eq i64 %12, %50
  %52 = add nuw i64 %12, 1
  br i1 %51, label %53, label %11

53:                                               ; preds = %45
  %54 = icmp sgt i32 %48, 0
  br i1 %54, label %55, label %64

55:                                               ; preds = %53, %55
  %56 = phi i64 [ %60, %55 ], [ 0, %53 ]
  %57 = getelementptr inbounds double, double* %10, i64 %56
  %58 = load double, double* %57, align 8, !tbaa !9
  %59 = call i32 (i8*, ...) @printf(i8* nonnull dereferenceable(1) getelementptr inbounds ([7 x i8], [7 x i8]* @.str.2, i64 0, i64 0), double %58)
  %60 = add nuw nsw i64 %56, 1
  %61 = load i32, i32* %1, align 4, !tbaa !5
  %62 = sext i32 %61 to i64
  %63 = icmp slt i64 %60, %62
  br i1 %63, label %55, label %64, !llvm.loop !11

64:                                               ; preds = %55, %53
  call void @free(i8* nonnull %9) #5
  call void @llvm.lifetime.end.p0i8(i64 4, i8* nonnull %4) #5
  call void @llvm.lifetime.end.p0i8(i64 4, i8* nonnull %3) #5
  ret i32 0
}

; Function Attrs: argmemonly mustprogress nofree nosync nounwind willreturn
declare void @llvm.lifetime.start.p0i8(i64 immarg, i8* nocapture) #1

; Function Attrs: nofree nounwind
declare noundef i32 @__isoc99_scanf(i8* nocapture noundef readonly, ...) local_unnamed_addr #2

; Function Attrs: inaccessiblememonly mustprogress nofree nounwind willreturn
declare noalias noundef align 16 i8* @malloc(i64 noundef) local_unnamed_addr #3

; Function Attrs: nofree nounwind
declare noundef i32 @printf(i8* nocapture noundef readonly, ...) local_unnamed_addr #2

; Function Attrs: inaccessiblemem_or_argmemonly mustprogress nounwind willreturn
declare void @free(i8* nocapture noundef) local_unnamed_addr #4

; Function Attrs: argmemonly mustprogress nofree nosync nounwind willreturn
declare void @llvm.lifetime.end.p0i8(i64 immarg, i8* nocapture) #1


!llvm.module.flags = !{!0, !1, !2, !3}
!llvm.ident = !{!4}

!0 = !{i32 1, !"wchar_size", i32 4}
!1 = !{i32 7, !"PIC Level", i32 2}
!2 = !{i32 7, !"PIE Level", i32 2}
!3 = !{i32 7, !"uwtable", i32 1}
!4 = !{!"clang version 13.0.0"}
!5 = !{!6, !6, i64 0}
!6 = !{!"int", !7, i64 0}
!7 = !{!"omnipotent char", !8, i64 0}
!8 = !{!"Simple C/C++ TBAA"}
!9 = !{!10, !10, i64 0}
!10 = !{!"double", !7, i64 0}
!11 = distinct !{!11, !12}
!12 = !{!"llvm.loop.mustprogress"}
